; Function Attrs: mustprogress nofree norecurse nosync nounwind willreturn memory(readwrite, inaccessiblemem: none) uwtable
define internal noundef i32 @resBS1(double %0, ptr noundef readonly captures(none) %1, ptr readnone captures(none) %2, ptr noundef readonly captures(none) %3, ptr readnone captures(none) %4, ptr noundef readonly captures(none) %5, ptr noundef readonly captures(none) %6, ptr noundef readonly captures(none) %7, ptr noundef readonly captures(none) %8) #5 {
  %10 = load double, ptr %8, align 8, !tbaa !9
  %11 = getelementptr inbounds nuw i8, ptr %8, i64 8
  %12 = load double, ptr %11, align 8, !tbaa !9
  %13 = getelementptr inbounds nuw i8, ptr %8, i64 16
  %14 = load double, ptr %13, align 8, !tbaa !9
  %15 = load ptr, ptr %1, align 8, !tbaa !11
  %16 = getelementptr inbounds nuw i8, ptr %15, i64 16
  %17 = load ptr, ptr %16, align 8, !tbaa !14
  %18 = load double, ptr %17, align 8, !tbaa !9
  %19 = getelementptr inbounds nuw i8, ptr %17, i64 8
  %20 = load double, ptr %19, align 8, !tbaa !9
  %21 = getelementptr inbounds nuw i8, ptr %17, i64 16
  %22 = load double, ptr %21, align 8, !tbaa !9
  %23 = load ptr, ptr %5, align 8, !tbaa !11
  %24 = getelementptr inbounds nuw i8, ptr %23, i64 16
  %25 = load ptr, ptr %24, align 8, !tbaa !14
  %26 = load double, ptr %25, align 8, !tbaa !9
  %27 = getelementptr inbounds nuw i8, ptr %25, i64 8
  %28 = load double, ptr %27, align 8, !tbaa !9
  %29 = getelementptr inbounds nuw i8, ptr %25, i64 16
  %30 = load double, ptr %29, align 8, !tbaa !9
  %31 = getelementptr inbounds nuw i8, ptr %25, i64 24
  %32 = load double, ptr %31, align 8, !tbaa !9
  %33 = getelementptr inbounds nuw i8, ptr %25, i64 32
  %34 = load double, ptr %33, align 8, !tbaa !9
  %35 = getelementptr inbounds nuw i8, ptr %25, i64 40
  %36 = load double, ptr %35, align 8, !tbaa !9
  %37 = load ptr, ptr %6, align 8, !tbaa !11
  %38 = getelementptr inbounds nuw i8, ptr %37, i64 16
  %39 = load ptr, ptr %38, align 8, !tbaa !14
  %40 = load double, ptr %39, align 8, !tbaa !9
  %41 = getelementptr inbounds nuw i8, ptr %39, i64 8
  %42 = load double, ptr %41, align 8, !tbaa !9
  %43 = getelementptr inbounds nuw i8, ptr %39, i64 24
  %44 = load double, ptr %43, align 8, !tbaa !9
  %45 = getelementptr inbounds nuw i8, ptr %39, i64 32
  %46 = load double, ptr %45, align 8, !tbaa !9
  %47 = load ptr, ptr %3, align 8, !tbaa !19
  %48 = load ptr, ptr %47, align 8, !tbaa !11
  %49 = getelementptr inbounds nuw i8, ptr %48, i64 16
  %50 = load ptr, ptr %49, align 8, !tbaa !14
  %51 = load double, ptr %50, align 8, !tbaa !9
  %52 = getelementptr inbounds nuw i8, ptr %50, i64 8
  %53 = load double, ptr %52, align 8, !tbaa !9
  %54 = getelementptr inbounds nuw i8, ptr %50, i64 16
  %55 = load double, ptr %54, align 8, !tbaa !9
  %56 = fsub double %28, %26
  %57 = tail call double @llvm.fmuladd.f64(double %10, double %56, double %40)
  %58 = fsub double %57, %30
  %59 = fadd double %18, %58
  %60 = load ptr, ptr %7, align 8, !tbaa !11
  %61 = getelementptr inbounds nuw i8, ptr %60, i64 16
  %62 = load ptr, ptr %61, align 8, !tbaa !14
  store double %59, ptr %62, align 8, !tbaa !9
  %63 = fmul double %12, %22
  %64 = fneg double %63
  %65 = tail call double @llvm.fmuladd.f64(double %64, double %56, double %42)
  %66 = fmul double %14, 2.000000e+00
  %67 = fmul double %66, %20
  %68 = fneg double %67
  %69 = tail call double @llvm.fmuladd.f64(double %68, double %28, double %65)
  %70 = fsub double %69, %30
  %71 = fadd double %20, %70
  %72 = getelementptr inbounds nuw i8, ptr %62, i64 8
  store double %71, ptr %72, align 8, !tbaa !9
  %73 = fneg double %12
  %74 = fmul double %20, %73
  %75 = fneg double %30
  %76 = tail call double @llvm.fmuladd.f64(double %74, double %56, double %75)
  %77 = fadd double %22, %76
  %78 = getelementptr inbounds nuw i8, ptr %62, i64 16
  store double %77, ptr %78, align 8, !tbaa !9
  %79 = fsub double %34, %32
  %80 = tail call double @llvm.fmuladd.f64(double %10, double %79, double %44)
  %81 = fsub double %80, %36
  %82 = fadd double %56, %81
  %83 = fadd double %82, %51
  %84 = getelementptr inbounds nuw i8, ptr %62, i64 24
  store double %83, ptr %84, align 8, !tbaa !9
  %85 = tail call double @llvm.fmuladd.f64(double %63, double %32, double %46)
  %86 = tail call double @llvm.fmuladd.f64(double %12, double %22, double %67)
  %87 = fneg double %86
  %88 = tail call double @llvm.fmuladd.f64(double %87, double %34, double %85)
  %89 = fsub double %88, %36
  %90 = fmul double %12, %55
  %91 = tail call double @llvm.fmuladd.f64(double %90, double %26, double %89)
  %92 = tail call double @llvm.fmuladd.f64(double %66, double %53, double %90)
  %93 = fneg double %92
  %94 = tail call double @llvm.fmuladd.f64(double %93, double %28, double %91)
  %95 = fadd double %53, %94
  %96 = getelementptr inbounds nuw i8, ptr %62, i64 32
  store double %95, ptr %96, align 8, !tbaa !9
  %97 = fmul double %12, %20
  %98 = fsub double %32, %34
  %99 = fneg double %36
  %100 = tail call double @llvm.fmuladd.f64(double %97, double %98, double %99)
  %101 = fneg double %53
  %102 = fmul double %12, %101
  %103 = tail call double @llvm.fmuladd.f64(double %102, double %56, double %100)
  %104 = fadd double %55, %103
  %105 = getelementptr inbounds nuw i8, ptr %62, i64 40
  store double %104, ptr %105, align 8, !tbaa !9
  ret i32 0
}